target datalayout = "e-m:e-p270:32:32-p271:32:32-p272:64:64-i64:64-i128:128-f80:128-n8:16:32:64-S128"
target triple = "x86_64-pc-linux-gnu"

%struct.MatchState = type { ptr, ptr, ptr, ptr, i32, i32, [32 x %struct.anon] }
%struct.anon = type { ptr, i64 }

@.str.23 = private unnamed_addr constant [18 x i8] c"too many captures\00", align 1
@.str.28 = private unnamed_addr constant [27 x i8] c"invalid capture index %%%d\00", align 1
@.str.29 = private unnamed_addr constant [19 x i8] c"unfinished capture\00", align 1

; Function Attrs: nounwind uwtable
define internal i64 @get_onecapture(ptr noundef %0, i32 noundef %1, ptr noundef %2, ptr noundef %3, ptr noundef %4) #0 {
  %6 = alloca i64, align 8
  %7 = alloca ptr, align 8
  %8 = alloca i32, align 4
  %9 = alloca ptr, align 8
  %10 = alloca ptr, align 8
  %11 = alloca ptr, align 8
  %12 = alloca i64, align 8
  store ptr %0, ptr %7, align 8, !tbaa !43
  store i32 %1, ptr %8, align 4, !tbaa !15
  store ptr %2, ptr %9, align 8, !tbaa !9
  store ptr %3, ptr %10, align 8, !tbaa !9
  store ptr %4, ptr %11, align 8, !tbaa !57
  %13 = load i32, ptr %8, align 4, !tbaa !15
  %14 = load ptr, ptr %7, align 8, !tbaa !43
  %15 = getelementptr inbounds nuw %struct.MatchState, ptr %14, i32 0, i32 5
  %16 = load i32, ptr %15, align 4, !tbaa !49
  %17 = icmp sge i32 %13, %16
  br i1 %17, label %18, label %42

18:                                               ; preds = %5
  %19 = load i32, ptr %8, align 4, !tbaa !15
  %20 = icmp ne i32 %19, 0
  %21 = zext i1 %20 to i32
  %22 = icmp ne i32 %21, 0
  %23 = zext i1 %22 to i32
  %24 = sext i32 %23 to i64
  %25 = call i64 @llvm.expect.i64(i64 %24, i64 0)
  %26 = icmp ne i64 %25, 0
  br i1 %26, label %27, label %34

27:                                               ; preds = %18
  %28 = load ptr, ptr %7, align 8, !tbaa !43
  %29 = getelementptr inbounds nuw %struct.MatchState, ptr %28, i32 0, i32 3
  %30 = load ptr, ptr %29, align 8, !tbaa !45
  %31 = load i32, ptr %8, align 4, !tbaa !15
  %32 = add nsw i32 %31, 1
  %33 = call i32 (ptr, ptr, ...) @luaL_error(ptr noundef %30, ptr noundef @.str.28, i32 noundef %32)
  br label %34

34:                                               ; preds = %27, %18
  %35 = load ptr, ptr %9, align 8, !tbaa !9
  %36 = load ptr, ptr %11, align 8, !tbaa !57
  store ptr %35, ptr %36, align 8, !tbaa !9
  %37 = load ptr, ptr %10, align 8, !tbaa !9
  %38 = load ptr, ptr %9, align 8, !tbaa !9
  %39 = ptrtoint ptr %37 to i64
  %40 = ptrtoint ptr %38 to i64
  %41 = sub i64 %39, %40
  store i64 %41, ptr %6, align 8
  br label %95

42:                                               ; preds = %5
  call void @llvm.lifetime.start.p0(i64 8, ptr %12) #11
  %43 = load ptr, ptr %7, align 8, !tbaa !43
  %44 = getelementptr inbounds nuw %struct.MatchState, ptr %43, i32 0, i32 6
  %45 = load i32, ptr %8, align 4, !tbaa !15
  %46 = sext i32 %45 to i64
  %47 = getelementptr inbounds [32 x %struct.anon], ptr %44, i64 0, i64 %46
  %48 = getelementptr inbounds nuw %struct.anon, ptr %47, i32 0, i32 1
  %49 = load i64, ptr %48, align 8, !tbaa !52
  store i64 %49, ptr %12, align 8, !tbaa !13
  %50 = load ptr, ptr %7, align 8, !tbaa !43
  %51 = getelementptr inbounds nuw %struct.MatchState, ptr %50, i32 0, i32 6
  %52 = load i32, ptr %8, align 4, !tbaa !15
  %53 = sext i32 %52 to i64
  %54 = getelementptr inbounds [32 x %struct.anon], ptr %51, i64 0, i64 %53
  %55 = getelementptr inbounds nuw %struct.anon, ptr %54, i32 0, i32 0
  %56 = load ptr, ptr %55, align 8, !tbaa !50
  %57 = load ptr, ptr %11, align 8, !tbaa !57
  store ptr %56, ptr %57, align 8, !tbaa !9
  %58 = load i64, ptr %12, align 8, !tbaa !13
  %59 = icmp eq i64 %58, -1
  %60 = zext i1 %59 to i32
  %61 = icmp ne i32 %60, 0
  %62 = zext i1 %61 to i32
  %63 = sext i32 %62 to i64
  %64 = call i64 @llvm.expect.i64(i64 %63, i64 0)
  %65 = icmp ne i64 %64, 0
  br i1 %65, label %66, label %71

66:                                               ; preds = %42
  %67 = load ptr, ptr %7, align 8, !tbaa !43
  %68 = getelementptr inbounds nuw %struct.MatchState, ptr %67, i32 0, i32 3
  %69 = load ptr, ptr %68, align 8, !tbaa !45
  %70 = call i32 (ptr, ptr, ...) @luaL_error(ptr noundef %69, ptr noundef @.str.29)
  br label %93

71:                                               ; preds = %42
  %72 = load i64, ptr %12, align 8, !tbaa !13
  %73 = icmp eq i64 %72, -2
  br i1 %73, label %74, label %92

74:                                               ; preds = %71
  %75 = load ptr, ptr %7, align 8, !tbaa !43
  %76 = getelementptr inbounds nuw %struct.MatchState, ptr %75, i32 0, i32 3
  %77 = load ptr, ptr %76, align 8, !tbaa !45
  %78 = load ptr, ptr %7, align 8, !tbaa !43
  %79 = getelementptr inbounds nuw %struct.MatchState, ptr %78, i32 0, i32 6
  %80 = load i32, ptr %8, align 4, !tbaa !15
  %81 = sext i32 %80 to i64
  %82 = getelementptr inbounds [32 x %struct.anon], ptr %79, i64 0, i64 %81
  %83 = getelementptr inbounds nuw %struct.anon, ptr %82, i32 0, i32 0
  %84 = load ptr, ptr %83, align 8, !tbaa !50
  %85 = load ptr, ptr %7, align 8, !tbaa !43
  %86 = getelementptr inbounds nuw %struct.MatchState, ptr %85, i32 0, i32 0
  %87 = load ptr, ptr %86, align 8, !tbaa !47
  %88 = ptrtoint ptr %84 to i64
  %89 = ptrtoint ptr %87 to i64
  %90 = sub i64 %88, %89
  %91 = add nsw i64 %90, 1
  call void @lua_pushinteger(ptr noundef %77, i64 noundef %91)
  br label %92

92:                                               ; preds = %74, %71
  br label %93

93:                                               ; preds = %92, %66
  %94 = load i64, ptr %12, align 8, !tbaa !13
  store i64 %94, ptr %6, align 8
  call void @llvm.lifetime.end.p0(i64 8, ptr %12) #11
  br label %95

95:                                               ; preds = %93, %34
  %96 = load i64, ptr %6, align 8
  ret i64 %96
}

; Function Attrs: nounwind uwtable
define internal void @push_onecapture(ptr noundef %0, i32 noundef %1, ptr noundef %2, ptr noundef %3) #0 {
  %5 = alloca ptr, align 8
  %6 = alloca i32, align 4
  %7 = alloca ptr, align 8
  %8 = alloca ptr, align 8
  %9 = alloca ptr, align 8
  %10 = alloca i64, align 8
  store ptr %0, ptr %5, align 8, !tbaa !43
  store i32 %1, ptr %6, align 4, !tbaa !15
  store ptr %2, ptr %7, align 8, !tbaa !9
  store ptr %3, ptr %8, align 8, !tbaa !9
  call void @llvm.lifetime.start.p0(i64 8, ptr %9) #11
  call void @llvm.lifetime.start.p0(i64 8, ptr %10) #11
  %11 = load ptr, ptr %5, align 8, !tbaa !43
  %12 = load i32, ptr %6, align 4, !tbaa !15
  %13 = load ptr, ptr %7, align 8, !tbaa !9
  %14 = load ptr, ptr %8, align 8, !tbaa !9
  %15 = call i64 @get_onecapture(ptr noundef %11, i32 noundef %12, ptr noundef %13, ptr noundef %14, ptr noundef %9)
  store i64 %15, ptr %10, align 8, !tbaa !13
  %16 = load i64, ptr %10, align 8, !tbaa !13
  %17 = icmp ne i64 %16, -2
  br i1 %17, label %18, label %25

18:                                               ; preds = %4
  %19 = load ptr, ptr %5, align 8, !tbaa !43
  %20 = getelementptr inbounds nuw %struct.MatchState, ptr %19, i32 0, i32 3
  %21 = load ptr, ptr %20, align 8, !tbaa !45
  %22 = load ptr, ptr %9, align 8, !tbaa !9
  %23 = load i64, ptr %10, align 8, !tbaa !13
  %24 = call ptr @lua_pushlstring(ptr noundef %21, ptr noundef %22, i64 noundef %23)
  br label %25

25:                                               ; preds = %18, %4
  call void @llvm.lifetime.end.p0(i64 8, ptr %10) #11
  call void @llvm.lifetime.end.p0(i64 8, ptr %9) #11
  ret void
}

; Function Attrs: nounwind uwtable
define internal i32 @push_captures(ptr noundef %0, ptr noundef %1, ptr noundef %2) #0 {
  %4 = alloca ptr, align 8
  %5 = alloca ptr, align 8
  %6 = alloca ptr, align 8
  %7 = alloca i32, align 4
  %8 = alloca i32, align 4
  store ptr %0, ptr %4, align 8, !tbaa !43
  store ptr %1, ptr %5, align 8, !tbaa !9
  store ptr %2, ptr %6, align 8, !tbaa !9
  call void @llvm.lifetime.start.p0(i64 4, ptr %7) #11
  call void @llvm.lifetime.start.p0(i64 4, ptr %8) #11
  %9 = load ptr, ptr %4, align 8, !tbaa !43
  %10 = getelementptr inbounds nuw %struct.MatchState, ptr %9, i32 0, i32 5
  %11 = load i32, ptr %10, align 4, !tbaa !49
  %12 = icmp eq i32 %11, 0
  br i1 %12, label %13, label %17

13:                                               ; preds = %3
  %14 = load ptr, ptr %5, align 8, !tbaa !9
  %15 = icmp ne ptr %14, null
  br i1 %15, label %16, label %17

16:                                               ; preds = %13
  br label %21

17:                                               ; preds = %13, %3
  %18 = load ptr, ptr %4, align 8, !tbaa !43
  %19 = getelementptr inbounds nuw %struct.MatchState, ptr %18, i32 0, i32 5
  %20 = load i32, ptr %19, align 4, !tbaa !49
  br label %21

21:                                               ; preds = %17, %16
  %22 = phi i32 [ 1, %16 ], [ %20, %17 ]
  store i32 %22, ptr %8, align 4, !tbaa !15
  %23 = load ptr, ptr %4, align 8, !tbaa !43
  %24 = getelementptr inbounds nuw %struct.MatchState, ptr %23, i32 0, i32 3
  %25 = load ptr, ptr %24, align 8, !tbaa !45
  %26 = load i32, ptr %8, align 4, !tbaa !15
  call void @luaL_checkstack(ptr noundef %25, i32 noundef %26, ptr noundef @.str.23)
  store i32 0, ptr %7, align 4, !tbaa !15
  br label %27

27:                                               ; preds = %36, %21
  %28 = load i32, ptr %7, align 4, !tbaa !15
  %29 = load i32, ptr %8, align 4, !tbaa !15
  %30 = icmp slt i32 %28, %29
  br i1 %30, label %31, label %39

31:                                               ; preds = %27
  %32 = load ptr, ptr %4, align 8, !tbaa !43
  %33 = load i32, ptr %7, align 4, !tbaa !15
  %34 = load ptr, ptr %5, align 8, !tbaa !9
  %35 = load ptr, ptr %6, align 8, !tbaa !9
  call void @push_onecapture(ptr noundef %32, i32 noundef %33, ptr noundef %34, ptr noundef %35)
  br label %36

36:                                               ; preds = %31
  %37 = load i32, ptr %7, align 4, !tbaa !15
  %38 = add nsw i32 %37, 1
  store i32 %38, ptr %7, align 4, !tbaa !15
  br label %27

39:                                               ; preds = %27
  %40 = load i32, ptr %8, align 4, !tbaa !15
  call void @llvm.lifetime.end.p0(i64 4, ptr %8) #11
  call void @llvm.lifetime.end.p0(i64 4, ptr %7) #11
  ret i32 %40
}