; Function Attrs: nounwind uwtable
define internal fastcc noundef i32 @push_captures(ptr noundef readonly captures(none) %0, ptr noundef %1, ptr noundef %2) unnamed_addr #0 {
  %4 = getelementptr inbounds nuw i8, ptr %0, i64 36
  %5 = load i32, ptr %4, align 4, !tbaa !37
  %6 = icmp eq i32 %5, 0
  %7 = icmp ne ptr %1, null
  %or.cond = and i1 %7, %6
  %spec.select = select i1 %or.cond, i32 1, i32 %5
  %8 = getelementptr inbounds nuw i8, ptr %0, i64 24
  %9 = load ptr, ptr %8, align 8, !tbaa !27
  tail call void @luaL_checkstack(ptr noundef %9, i32 noundef %spec.select, ptr noundef nonnull @.str.23) #12
  %10 = icmp sgt i32 %spec.select, 0
  br i1 %10, label %.lr.ph, label %._crit_edge

.lr.ph:                                           ; preds = %3
  %11 = ptrtoint ptr %2 to i64
  %12 = ptrtoint ptr %1 to i64
  %13 = sub i64 %11, %12
  %.not.i = icmp eq i64 %13, -2
  %14 = getelementptr inbounds nuw i8, ptr %0, i64 40
  %wide.trip.count22 = zext nneg i32 %spec.select to i64
  br i1 %.not.i, label %.lr.ph.split.us, label %.lr.ph.split

.lr.ph.split.us:                                  ; preds = %.lr.ph, %push_onecapture.exit.us
  %indvars.iv19 = phi i64 [ %indvars.iv.next20, %push_onecapture.exit.us ], [ 0, %.lr.ph ]
  %15 = load i32, ptr %4, align 4, !tbaa !37
  %16 = sext i32 %15 to i64
  %.not.i.i.us = icmp slt i64 %indvars.iv19, %16
  br i1 %.not.i.i.us, label %23, label %17

17:                                               ; preds = %.lr.ph.split.us
  %.not24.i.i.us = icmp eq i64 %indvars.iv19, 0
  br i1 %.not24.i.i.us, label %push_onecapture.exit.us, label %18, !prof !10

18:                                               ; preds = %17
  %19 = load ptr, ptr %8, align 8, !tbaa !27
  %20 = trunc i64 %indvars.iv19 to i32
  %21 = add i32 %20, 1
  %22 = tail call i32 (ptr, ptr, ...) @luaL_error(ptr noundef %19, ptr noundef nonnull @.str.28, i32 noundef %21) #12
  br label %push_onecapture.exit.us

23:                                               ; preds = %.lr.ph.split.us
  %24 = getelementptr inbounds nuw [32 x %struct.anon], ptr %14, i64 0, i64 %indvars.iv19
  %25 = getelementptr inbounds nuw i8, ptr %24, i64 8
  %26 = load i64, ptr %25, align 8, !tbaa !38
  %27 = load ptr, ptr %24, align 8, !tbaa !40
  switch i64 %26, label %get_onecapture.exit.thread.i.us [
    i64 -1, label %34
    i64 -2, label %get_onecapture.exit.thread11.i.us
  ], !prof !41

get_onecapture.exit.thread11.i.us:                ; preds = %23
  %28 = load ptr, ptr %8, align 8, !tbaa !27
  %29 = load ptr, ptr %0, align 8, !tbaa !30
  %30 = ptrtoint ptr %27 to i64
  %31 = ptrtoint ptr %29 to i64
  %32 = add i64 %30, 1
  %33 = sub i64 %32, %31
  tail call void @lua_pushinteger(ptr noundef %28, i64 noundef %33) #12
  br label %push_onecapture.exit.us

34:                                               ; preds = %23
  %35 = load ptr, ptr %8, align 8, !tbaa !27
  %36 = tail call i32 (ptr, ptr, ...) @luaL_error(ptr noundef %35, ptr noundef nonnull @.str.29) #12
  br label %get_onecapture.exit.thread.i.us

get_onecapture.exit.thread.i.us:                  ; preds = %34, %23
  %37 = load ptr, ptr %8, align 8, !tbaa !27
  %38 = tail call ptr @lua_pushlstring(ptr noundef %37, ptr noundef %27, i64 noundef %26) #12
  br label %push_onecapture.exit.us

push_onecapture.exit.us:                          ; preds = %17, %18, %get_onecapture.exit.thread.i.us, %get_onecapture.exit.thread11.i.us
  %indvars.iv.next20 = add nuw nsw i64 %indvars.iv19, 1
  %exitcond23.not = icmp eq i64 %indvars.iv.next20, %wide.trip.count22
  br i1 %exitcond23.not, label %._crit_edge, label %.lr.ph.split.us

.lr.ph.split:                                     ; preds = %.lr.ph, %push_onecapture.exit
  %indvars.iv = phi i64 [ %indvars.iv.next, %push_onecapture.exit ], [ 0, %.lr.ph ]
  %39 = load i32, ptr %4, align 4, !tbaa !37
  %40 = sext i32 %39 to i64
  %.not.i.i = icmp slt i64 %indvars.iv, %40
  br i1 %.not.i.i, label %47, label %41

41:                                               ; preds = %.lr.ph.split
  %.not24.i.i = icmp eq i64 %indvars.iv, 0
  br i1 %.not24.i.i, label %get_onecapture.exit.thread.i, label %42, !prof !10

42:                                               ; preds = %41
  %43 = load ptr, ptr %8, align 8, !tbaa !27
  %44 = trunc i64 %indvars.iv to i32
  %45 = add i32 %44, 1
  %46 = tail call i32 (ptr, ptr, ...) @luaL_error(ptr noundef %43, ptr noundef nonnull @.str.28, i32 noundef %45) #12
  br label %get_onecapture.exit.thread.i

47:                                               ; preds = %.lr.ph.split
  %48 = getelementptr inbounds nuw [32 x %struct.anon], ptr %14, i64 0, i64 %indvars.iv
  %49 = getelementptr inbounds nuw i8, ptr %48, i64 8
  %50 = load i64, ptr %49, align 8, !tbaa !38
  %51 = load ptr, ptr %48, align 8, !tbaa !40
  switch i64 %50, label %get_onecapture.exit.thread.i [
    i64 -1, label %52
    i64 -2, label %get_onecapture.exit.thread11.i
  ], !prof !41

52:                                               ; preds = %47
  %53 = load ptr, ptr %8, align 8, !tbaa !27
  %54 = tail call i32 (ptr, ptr, ...) @luaL_error(ptr noundef %53, ptr noundef nonnull @.str.29) #12
  br label %get_onecapture.exit.thread.i

get_onecapture.exit.thread11.i:                   ; preds = %47
  %55 = load ptr, ptr %8, align 8, !tbaa !27
  %56 = load ptr, ptr %0, align 8, !tbaa !30
  %57 = ptrtoint ptr %51 to i64
  %58 = ptrtoint ptr %56 to i64
  %59 = add i64 %57, 1
  %60 = sub i64 %59, %58
  tail call void @lua_pushinteger(ptr noundef %55, i64 noundef %60) #12
  br label %push_onecapture.exit

get_onecapture.exit.thread.i:                     ; preds = %41, %42, %52, %47
  %.0.i10.i = phi i64 [ -1, %52 ], [ %50, %47 ], [ %13, %42 ], [ %13, %41 ]
  %.09.i = phi ptr [ %51, %52 ], [ %51, %47 ], [ %1, %42 ], [ %1, %41 ]
  %61 = load ptr, ptr %8, align 8, !tbaa !27
  %62 = tail call ptr @lua_pushlstring(ptr noundef %61, ptr noundef %.09.i, i64 noundef %.0.i10.i) #12
  br label %push_onecapture.exit

push_onecapture.exit:                             ; preds = %get_onecapture.exit.thread11.i, %get_onecapture.exit.thread.i
  %indvars.iv.next = add nuw nsw i64 %indvars.iv, 1
  %exitcond.not = icmp eq i64 %indvars.iv.next, %wide.trip.count22
  br i1 %exitcond.not, label %._crit_edge, label %.lr.ph.split

._crit_edge:                                      ; preds = %push_onecapture.exit, %push_onecapture.exit.us, %3
  ret i32 %spec.select
}